; Function Attrs: mustprogress nounwind uwtable
define hidden ptr @_ZN10JavaThread27create_system_thread_objectEPKcPS_(ptr noundef %0, ptr noundef %1) local_unnamed_addr #0 align 2 {
  %3 = tail call ptr @_ZN16java_lang_String15create_from_strEPKcP10JavaThread(ptr noundef %0, ptr noundef %1) #21
  %4 = getelementptr inbounds i8, ptr %1, i64 8
  %5 = load ptr, ptr %4, align 8
  %.not = icmp eq ptr %5, null
  br i1 %.not, label %6, label %27

6:                                                ; preds = %2
  %7 = tail call noundef ptr @_ZN8Universe19system_thread_groupEv() #21
  %8 = icmp eq ptr %7, null
  br i1 %8, label %_ZN6HandleC2EP6ThreadP7oopDesc.exit, label %9

9:                                                ; preds = %6
  %10 = getelementptr inbounds i8, ptr %1, i64 808
  %11 = load ptr, ptr %10, align 8
  %12 = getelementptr inbounds i8, ptr %11, i64 40
  %13 = load ptr, ptr %12, align 8
  %14 = getelementptr inbounds i8, ptr %11, i64 32
  %15 = load ptr, ptr %14, align 8
  %16 = ptrtoint ptr %13 to i64
  %17 = ptrtoint ptr %15 to i64
  %18 = sub i64 %16, %17
  %.not.i.i.i.i = icmp ult i64 %18, 8
  br i1 %.not.i.i.i.i, label %21, label %19

19:                                               ; preds = %9
  %20 = getelementptr inbounds i8, ptr %15, i64 8
  store ptr %20, ptr %14, align 8
  br label %_ZN10HandleArea15allocate_handleEP7oopDesc.exit.i

21:                                               ; preds = %9
  %22 = tail call noundef ptr @_ZN5Arena4growEmN17AllocFailStrategy13AllocFailEnumE(ptr noundef nonnull align 8 dereferenceable(48) %11, i64 noundef 8, i32 noundef 0) #21
  br label %_ZN10HandleArea15allocate_handleEP7oopDesc.exit.i

_ZN10HandleArea15allocate_handleEP7oopDesc.exit.i: ; preds = %21, %19
  %.0.i.i.i.i = phi ptr [ %15, %19 ], [ %22, %21 ]
  store ptr %7, ptr %.0.i.i.i.i, align 8
  br label %_ZN6HandleC2EP6ThreadP7oopDesc.exit

_ZN6HandleC2EP6ThreadP7oopDesc.exit:              ; preds = %6, %_ZN10HandleArea15allocate_handleEP7oopDesc.exit.i
  %storemerge.i = phi ptr [ %.0.i.i.i.i, %_ZN10HandleArea15allocate_handleEP7oopDesc.exit.i ], [ null, %6 ]
  %23 = load ptr, ptr getelementptr inbounds (i8, ptr @_ZN9vmClasses8_klassesE, i64 264), align 8
  %24 = load ptr, ptr getelementptr inbounds (i8, ptr @_ZN6Symbol11_vm_symbolsE, i64 7240), align 8
  %25 = tail call ptr @_ZN9JavaCalls22construct_new_instanceEP13InstanceKlassP6Symbol6HandleS4_P10JavaThread(ptr noundef %23, ptr noundef %24, ptr %storemerge.i, ptr %3, ptr noundef nonnull %1) #21
  %26 = load ptr, ptr %4, align 8
  %.not10 = icmp eq ptr %26, null
  %spec.select = select i1 %.not10, ptr %25, ptr null
  br label %27

27:                                               ; preds = %_ZN6HandleC2EP6ThreadP7oopDesc.exit, %2
  %.sroa.09.0 = phi ptr [ null, %2 ], [ %spec.select, %_ZN6HandleC2EP6ThreadP7oopDesc.exit ]
  ret ptr %.sroa.09.0
}